target datalayout = "e-m:e-p270:32:32-p271:32:32-p272:64:64-i64:64-i128:128-f80:128-n8:16:32:64-S128"
target triple = "x86_64-pc-linux-gnu"

%"class.Ipopt::ReferencedObject.base" = type <{ ptr, i32 }>
%"class.Ipopt::SmartPtr" = type { ptr }
%"class.Ipopt::RegisteredOptions" = type { %"class.Ipopt::ReferencedObject.base", %"class.std::map", %"class.std::map.16", i32, %"class.Ipopt::SmartPtr" }
%"class.std::map" = type { %"class.std::_Rb_tree" }
%"class.std::_Rb_tree" = type { %"struct.std::_Rb_tree<std::__cxx11::basic_string<char>, std::pair<const std::__cxx11::basic_string<char>, Ipopt::SmartPtr<Ipopt::RegisteredOption>>, std::_Select1st<std::pair<const std::__cxx11::basic_string<char>, Ipopt::SmartPtr<Ipopt::RegisteredOption>>>, std::less<std::__cxx11::basic_string<char>>>::_Rb_tree_impl" }
%"struct.std::_Rb_tree<std::__cxx11::basic_string<char>, std::pair<const std::__cxx11::basic_string<char>, Ipopt::SmartPtr<Ipopt::RegisteredOption>>, std::_Select1st<std::pair<const std::__cxx11::basic_string<char>, Ipopt::SmartPtr<Ipopt::RegisteredOption>>>, std::less<std::__cxx11::basic_string<char>>>::_Rb_tree_impl" = type { [8 x i8], %"struct.std::_Rb_tree_header" }
%"struct.std::_Rb_tree_header" = type { %"struct.std::_Rb_tree_node_base", i64 }
%"struct.std::_Rb_tree_node_base" = type { i32, ptr, ptr, ptr }
%"class.std::map.16" = type { %"class.std::_Rb_tree.17" }
%"class.std::_Rb_tree.17" = type { %"struct.std::_Rb_tree<std::__cxx11::basic_string<char>, std::pair<const std::__cxx11::basic_string<char>, Ipopt::SmartPtr<Ipopt::RegisteredCategory>>, std::_Select1st<std::pair<const std::__cxx11::basic_string<char>, Ipopt::SmartPtr<Ipopt::RegisteredCategory>>>, std::less<std::__cxx11::basic_string<char>>>::_Rb_tree_impl" }
%"struct.std::_Rb_tree<std::__cxx11::basic_string<char>, std::pair<const std::__cxx11::basic_string<char>, Ipopt::SmartPtr<Ipopt::RegisteredCategory>>, std::_Select1st<std::pair<const std::__cxx11::basic_string<char>, Ipopt::SmartPtr<Ipopt::RegisteredCategory>>>, std::less<std::__cxx11::basic_string<char>>>::_Rb_tree_impl" = type { [8 x i8], %"struct.std::_Rb_tree_header" }
%"class.Ipopt::SmartPtr.21" = type { ptr }
%"class.Ipopt::ReferencedObject" = type <{ ptr, i32, [4 x i8] }>

; Function Attrs: inlinehint mustprogress nounwind uwtable
define linkonce_odr noundef i32 @_ZNK5Ipopt16ReferencedObject14ReferenceCountEv(ptr noundef nonnull align 8 dereferenceable(12) %0) #7 comdat align 2 {
  %2 = alloca ptr, align 8
  store ptr %0, ptr %2, align 8, !tbaa !200
  %3 = load ptr, ptr %2, align 8
  %4 = getelementptr inbounds nuw %"class.Ipopt::ReferencedObject", ptr %3, i32 0, i32 1
  %5 = load i32, ptr %4, align 8, !tbaa !202
  ret i32 %5
}

; Function Attrs: inlinehint mustprogress nounwind uwtable
define linkonce_odr void @_ZNK5Ipopt16ReferencedObject10ReleaseRefEPKNS_10ReferencerE(ptr noundef nonnull align 8 dereferenceable(12) %0, ptr noundef %1) #7 comdat align 2 {
  %3 = alloca ptr, align 8
  %4 = alloca ptr, align 8
  store ptr %0, ptr %3, align 8, !tbaa !200
  store ptr %1, ptr %4, align 8, !tbaa !221
  %5 = load ptr, ptr %3, align 8
  %6 = getelementptr inbounds nuw %"class.Ipopt::ReferencedObject", ptr %5, i32 0, i32 1
  %7 = load i32, ptr %6, align 8, !tbaa !202
  %8 = add nsw i32 %7, -1
  store i32 %8, ptr %6, align 8, !tbaa !202
  ret void
}

; Function Attrs: inlinehint mustprogress nounwind uwtable
define linkonce_odr void @_ZNK5Ipopt16ReferencedObject6AddRefEPKNS_10ReferencerE(ptr noundef nonnull align 8 dereferenceable(12) %0, ptr noundef %1) #7 comdat align 2 {
  %3 = alloca ptr, align 8
  %4 = alloca ptr, align 8
  store ptr %0, ptr %3, align 8, !tbaa !200
  store ptr %1, ptr %4, align 8, !tbaa !221
  %5 = load ptr, ptr %3, align 8
  %6 = getelementptr inbounds nuw %"class.Ipopt::ReferencedObject", ptr %5, i32 0, i32 1
  %7 = load i32, ptr %6, align 8, !tbaa !202
  %8 = add nsw i32 %7, 1
  store i32 %8, ptr %6, align 8, !tbaa !202
  ret void
}

; Function Attrs: mustprogress nounwind uwtable
define linkonce_odr void @_ZN5Ipopt8SmartPtrINS_16RegisteredOptionEE15ReleasePointer_Ev(ptr noundef nonnull align 8 dereferenceable(8) %0) #6 comdat align 2 {
  %2 = alloca ptr, align 8
  store ptr %0, ptr %2, align 8, !tbaa !105
  %3 = load ptr, ptr %2, align 8
  %4 = getelementptr inbounds nuw %"class.Ipopt::SmartPtr.21", ptr %3, i32 0, i32 0
  %5 = load ptr, ptr %4, align 8, !tbaa !113
  %6 = icmp ne ptr %5, null
  br i1 %6, label %7, label %25

7:                                                ; preds = %1
  %8 = getelementptr inbounds nuw %"class.Ipopt::SmartPtr.21", ptr %3, i32 0, i32 0
  %9 = load ptr, ptr %8, align 8, !tbaa !113
  call void @_ZNK5Ipopt16ReferencedObject10ReleaseRefEPKNS_10ReferencerE(ptr noundef nonnull align 8 dereferenceable(12) %9, ptr noundef %3)
  %10 = getelementptr inbounds nuw %"class.Ipopt::SmartPtr.21", ptr %3, i32 0, i32 0
  %11 = load ptr, ptr %10, align 8, !tbaa !113
  %12 = call noundef i32 @_ZNK5Ipopt16ReferencedObject14ReferenceCountEv(ptr noundef nonnull align 8 dereferenceable(12) %11)
  %13 = icmp eq i32 %12, 0
  br i1 %13, label %14, label %24

14:                                               ; preds = %7
  %15 = getelementptr inbounds nuw %"class.Ipopt::SmartPtr.21", ptr %3, i32 0, i32 0
  %16 = load ptr, ptr %15, align 8, !tbaa !113
  %17 = icmp eq ptr %16, null
  br i1 %17, label %22, label %18

18:                                               ; preds = %14
  %19 = load ptr, ptr %16, align 8, !tbaa !31
  %20 = getelementptr inbounds ptr, ptr %19, i64 1
  %21 = load ptr, ptr %20, align 8
  call void %21(ptr noundef nonnull align 8 dereferenceable(220) %16) #3
  br label %22

22:                                               ; preds = %18, %14
  %23 = getelementptr inbounds nuw %"class.Ipopt::SmartPtr.21", ptr %3, i32 0, i32 0
  store ptr null, ptr %23, align 8, !tbaa !113
  br label %24

24:                                               ; preds = %22, %7
  br label %25

25:                                               ; preds = %24, %1
  ret void
}

; Function Attrs: mustprogress uwtable
define linkonce_odr noundef nonnull align 8 dereferenceable(8) ptr @_ZN5Ipopt8SmartPtrINS_16RegisteredOptionEE14SetFromRawPtr_EPS1_(ptr noundef nonnull align 8 dereferenceable(8) %0, ptr noundef %1) #4 comdat align 2 {
  %3 = alloca ptr, align 8
  %4 = alloca ptr, align 8
  store ptr %0, ptr %3, align 8, !tbaa !105
  store ptr %1, ptr %4, align 8, !tbaa !3
  %5 = load ptr, ptr %3, align 8
  %6 = load ptr, ptr %4, align 8, !tbaa !3
  %7 = icmp ne ptr %6, null
  br i1 %7, label %8, label %10

8:                                                ; preds = %2
  %9 = load ptr, ptr %4, align 8, !tbaa !3
  call void @_ZNK5Ipopt16ReferencedObject6AddRefEPKNS_10ReferencerE(ptr noundef nonnull align 8 dereferenceable(12) %9, ptr noundef %5)
  br label %10

10:                                               ; preds = %8, %2
  call void @_ZN5Ipopt8SmartPtrINS_16RegisteredOptionEE15ReleasePointer_Ev(ptr noundef nonnull align 8 dereferenceable(8) %5)
  %11 = load ptr, ptr %4, align 8, !tbaa !3
  %12 = getelementptr inbounds nuw %"class.Ipopt::SmartPtr.21", ptr %5, i32 0, i32 0
  store ptr %11, ptr %12, align 8, !tbaa !113
  ret ptr %5
}

; Function Attrs: mustprogress nounwind uwtable
define linkonce_odr void @_ZN5Ipopt8SmartPtrINS_16RegisteredOptionEED2Ev(ptr noundef nonnull align 8 dereferenceable(8) %0) unnamed_addr #6 comdat align 2 {
  %2 = alloca ptr, align 8
  store ptr %0, ptr %2, align 8, !tbaa !105
  %3 = load ptr, ptr %2, align 8
  call void @_ZN5Ipopt8SmartPtrINS_16RegisteredOptionEE15ReleasePointer_Ev(ptr noundef nonnull align 8 dereferenceable(8) %3)
  ret void
}

; Function Attrs: mustprogress nounwind uwtable
define linkonce_odr noundef ptr @_ZNK5Ipopt8SmartPtrINS_16RegisteredOptionEEptEv(ptr noundef nonnull align 8 dereferenceable(8) %0) #6 comdat align 2 {
  %2 = alloca ptr, align 8
  store ptr %0, ptr %2, align 8, !tbaa !105
  %3 = load ptr, ptr %2, align 8
  %4 = getelementptr inbounds nuw %"class.Ipopt::SmartPtr.21", ptr %3, i32 0, i32 0
  %5 = load ptr, ptr %4, align 8, !tbaa !113
  ret ptr %5
}

; Function Attrs: mustprogress uwtable
define linkonce_odr void @_ZN5Ipopt8SmartPtrINS_16RegisteredOptionEEC2EPS1_(ptr noundef nonnull align 8 dereferenceable(8) %0, ptr noundef %1) unnamed_addr #4 comdat align 2 {
  %3 = alloca ptr, align 8
  %4 = alloca ptr, align 8
  store ptr %0, ptr %3, align 8, !tbaa !105
  store ptr %1, ptr %4, align 8, !tbaa !3
  %5 = load ptr, ptr %3, align 8
  %6 = getelementptr inbounds nuw %"class.Ipopt::SmartPtr.21", ptr %5, i32 0, i32 0
  store ptr null, ptr %6, align 8, !tbaa !113
  %7 = load ptr, ptr %4, align 8, !tbaa !3
  %8 = call noundef nonnull align 8 dereferenceable(8) ptr @_ZN5Ipopt8SmartPtrINS_16RegisteredOptionEE14SetFromRawPtr_EPS1_(ptr noundef nonnull align 8 dereferenceable(8) %5, ptr noundef %7)
  ret void
}

; Function Attrs: mustprogress uwtable
define void @_ZN5Ipopt17RegisteredOptions23AddBoundedIntegerOptionERKNSt7__cxx1112basic_stringIcSt11char_traitsIcESaIcEEES8_iiiS8_b(ptr noundef nonnull align 8 dereferenceable(128) %0, ptr noundef nonnull align 8 dereferenceable(32) %1, ptr noundef nonnull align 8 dereferenceable(32) %2, i32 noundef %3, i32 noundef %4, i32 noundef %5, ptr noundef nonnull align 8 dereferenceable(32) %6, i1 noundef zeroext %7) unnamed_addr #4 align 2 personality ptr @__gxx_personality_v0 {
  %9 = alloca ptr, align 8
  %10 = alloca ptr, align 8
  %11 = alloca ptr, align 8
  %12 = alloca i32, align 4
  %13 = alloca i32, align 4
  %14 = alloca i32, align 4
  %15 = alloca ptr, align 8
  %16 = alloca i8, align 1
  %17 = alloca %"class.Ipopt::SmartPtr.21", align 8
  %18 = alloca ptr, align 8
  %19 = alloca i32, align 4
  %20 = alloca i32, align 4
  store ptr %0, ptr %9, align 8, !tbaa !90
  store ptr %1, ptr %10, align 8, !tbaa !44
  store ptr %2, ptr %11, align 8, !tbaa !44
  store i32 %3, ptr %12, align 4, !tbaa !82
  store i32 %4, ptr %13, align 4, !tbaa !82
  store i32 %5, ptr %14, align 4, !tbaa !82
  store ptr %6, ptr %15, align 8, !tbaa !44
  %21 = zext i1 %7 to i8
  store i8 %21, ptr %16, align 1, !tbaa !63
  %22 = load ptr, ptr %9, align 8
  call void @llvm.lifetime.start.p0(i64 8, ptr %17) #3
  %23 = call noalias noundef nonnull ptr @_Znwm(i64 noundef 224) #20
  %24 = load ptr, ptr %10, align 8, !tbaa !44
  %25 = load ptr, ptr %11, align 8, !tbaa !44
  %26 = load ptr, ptr %15, align 8, !tbaa !44
  %27 = getelementptr inbounds nuw %"class.Ipopt::RegisteredOptions", ptr %22, i32 0, i32 4
  %28 = getelementptr inbounds nuw %"class.Ipopt::RegisteredOptions", ptr %22, i32 0, i32 3
  %29 = load i32, ptr %28, align 8, !tbaa !119
  %30 = add nsw i32 %29, 1
  store i32 %30, ptr %28, align 8, !tbaa !119
  %31 = load i8, ptr %16, align 1, !tbaa !63, !range !29, !noundef !30
  %32 = trunc i8 %31 to i1
  invoke void @_ZN5Ipopt16RegisteredOptionC2ERKNSt7__cxx1112basic_stringIcSt11char_traitsIcESaIcEEES8_S8_RKNS_8SmartPtrINS_18RegisteredCategoryEEEib(ptr noundef nonnull align 8 dereferenceable(220) %23, ptr noundef nonnull align 8 dereferenceable(32) %24, ptr noundef nonnull align 8 dereferenceable(32) %25, ptr noundef nonnull align 8 dereferenceable(32) %26, ptr noundef nonnull align 8 dereferenceable(8) %27, i32 noundef %29, i1 noundef zeroext %32)
          to label %33 unwind label %59

33:                                               ; preds = %8
  call void @_ZN5Ipopt8SmartPtrINS_16RegisteredOptionEEC2EPS1_(ptr noundef nonnull align 8 dereferenceable(8) %17, ptr noundef %23)
  %34 = invoke noundef ptr @_ZNK5Ipopt8SmartPtrINS_16RegisteredOptionEEptEv(ptr noundef nonnull align 8 dereferenceable(8) %17)
          to label %35 unwind label %63

35:                                               ; preds = %33
  call void @llvm.lifetime.start.p0(i64 4, ptr %20) #3
  store i32 1, ptr %20, align 4, !tbaa !132
  %36 = load ptr, ptr %34, align 8, !tbaa !31
  %37 = getelementptr inbounds ptr, ptr %36, i64 10
  %38 = load ptr, ptr %37, align 8
  invoke void %38(ptr noundef nonnull align 8 dereferenceable(220) %34, ptr noundef nonnull align 4 dereferenceable(4) %20)
          to label %39 unwind label %67

39:                                               ; preds = %35
  call void @llvm.lifetime.end.p0(i64 4, ptr %20) #3
  %40 = invoke noundef ptr @_ZNK5Ipopt8SmartPtrINS_16RegisteredOptionEEptEv(ptr noundef nonnull align 8 dereferenceable(8) %17)
          to label %41 unwind label %63

41:                                               ; preds = %39
  %42 = load ptr, ptr %40, align 8, !tbaa !31
  %43 = getelementptr inbounds ptr, ptr %42, i64 30
  %44 = load ptr, ptr %43, align 8
  invoke void %44(ptr noundef nonnull align 8 dereferenceable(220) %40, ptr noundef nonnull align 4 dereferenceable(4) %14)
          to label %45 unwind label %63

45:                                               ; preds = %41
  %46 = invoke noundef ptr @_ZNK5Ipopt8SmartPtrINS_16RegisteredOptionEEptEv(ptr noundef nonnull align 8 dereferenceable(8) %17)
          to label %47 unwind label %63

47:                                               ; preds = %45
  %48 = load ptr, ptr %46, align 8, !tbaa !31
  %49 = getelementptr inbounds ptr, ptr %48, i64 19
  %50 = load ptr, ptr %49, align 8
  invoke void %50(ptr noundef nonnull align 8 dereferenceable(220) %46, ptr noundef nonnull align 4 dereferenceable(4) %12)
          to label %51 unwind label %63

51:                                               ; preds = %47
  %52 = invoke noundef ptr @_ZNK5Ipopt8SmartPtrINS_16RegisteredOptionEEptEv(ptr noundef nonnull align 8 dereferenceable(8) %17)
          to label %53 unwind label %63

53:                                               ; preds = %51
  %54 = load ptr, ptr %52, align 8, !tbaa !31
  %55 = getelementptr inbounds ptr, ptr %54, i64 25
  %56 = load ptr, ptr %55, align 8
  invoke void %56(ptr noundef nonnull align 8 dereferenceable(220) %52, ptr noundef nonnull align 4 dereferenceable(4) %13)
          to label %57 unwind label %63

57:                                               ; preds = %53
  invoke void @_ZN5Ipopt17RegisteredOptions9AddOptionERKNS_8SmartPtrINS_16RegisteredOptionEEE(ptr noundef nonnull align 8 dereferenceable(128) %22, ptr noundef nonnull align 8 dereferenceable(8) %17)
          to label %58 unwind label %63

58:                                               ; preds = %57
  call void @_ZN5Ipopt8SmartPtrINS_16RegisteredOptionEED2Ev(ptr noundef nonnull align 8 dereferenceable(8) %17) #3
  call void @llvm.lifetime.end.p0(i64 8, ptr %17) #3
  ret void

59:                                               ; preds = %8
  %60 = landingpad { ptr, i32 }
          cleanup
  %61 = extractvalue { ptr, i32 } %60, 0
  store ptr %61, ptr %18, align 8
  %62 = extractvalue { ptr, i32 } %60, 1
  store i32 %62, ptr %19, align 4
  call void @_ZdlPvm(ptr noundef %23, i64 noundef 224) #21
  br label %72

63:                                               ; preds = %57, %53, %51, %47, %45, %41, %39, %33
  %64 = landingpad { ptr, i32 }
          cleanup
  %65 = extractvalue { ptr, i32 } %64, 0
  store ptr %65, ptr %18, align 8
  %66 = extractvalue { ptr, i32 } %64, 1
  store i32 %66, ptr %19, align 4
  br label %71

67:                                               ; preds = %35
  %68 = landingpad { ptr, i32 }
          cleanup
  %69 = extractvalue { ptr, i32 } %68, 0
  store ptr %69, ptr %18, align 8
  %70 = extractvalue { ptr, i32 } %68, 1
  store i32 %70, ptr %19, align 4
  call void @llvm.lifetime.end.p0(i64 4, ptr %20) #3
  br label %71

71:                                               ; preds = %67, %63
  call void @_ZN5Ipopt8SmartPtrINS_16RegisteredOptionEED2Ev(ptr noundef nonnull align 8 dereferenceable(8) %17) #3
  br label %72

72:                                               ; preds = %71, %59
  call void @llvm.lifetime.end.p0(i64 8, ptr %17) #3
  br label %73

73:                                               ; preds = %72
  %74 = load ptr, ptr %18, align 8
  %75 = load i32, ptr %19, align 4
  %76 = insertvalue { ptr, i32 } poison, ptr %74, 0
  %77 = insertvalue { ptr, i32 } %76, i32 %75, 1
  resume { ptr, i32 } %77
}