; Function Attrs: mustprogress uwtable
define void @_ZN5Ipopt17RegisteredOptions23AddBoundedIntegerOptionERKNSt7__cxx1112basic_stringIcSt11char_traitsIcESaIcEEES8_iiiS8_b(ptr noundef nonnull align 8 dereferenceable(128) %0, ptr noundef nonnull align 8 dereferenceable(32) %1, ptr noundef nonnull align 8 dereferenceable(32) %2, i32 noundef %3, i32 noundef %4, i32 noundef %5, ptr noundef nonnull align 8 dereferenceable(32) %6, i1 noundef zeroext %7) unnamed_addr #3 align 2 personality ptr @__gxx_personality_v0 {
  %9 = alloca i32, align 4
  %10 = alloca i32, align 4
  %11 = alloca i32, align 4
  %12 = alloca %"class.Ipopt::SmartPtr.21", align 8
  %13 = alloca i32, align 4
  store i32 %3, ptr %9, align 4, !tbaa !99
  store i32 %4, ptr %10, align 4, !tbaa !99
  store i32 %5, ptr %11, align 4, !tbaa !99
  call void @llvm.lifetime.start.p0(i64 8, ptr nonnull %12) #23
  %14 = tail call noalias noundef nonnull dereferenceable(224) ptr @_Znwm(i64 noundef 224) #27
  %15 = getelementptr inbounds nuw i8, ptr %0, i64 120
  %16 = getelementptr inbounds nuw i8, ptr %0, i64 112
  %17 = load i32, ptr %16, align 8, !tbaa !86
  %18 = add nsw i32 %17, 1
  store i32 %18, ptr %16, align 8, !tbaa !86
  invoke void @_ZN5Ipopt16RegisteredOptionC2ERKNSt7__cxx1112basic_stringIcSt11char_traitsIcESaIcEEES8_S8_RKNS_8SmartPtrINS_18RegisteredCategoryEEEib(ptr noundef nonnull align 8 dereferenceable(220) %14, ptr noundef nonnull align 8 dereferenceable(32) %1, ptr noundef nonnull align 8 dereferenceable(32) %2, ptr noundef nonnull align 8 dereferenceable(32) %6, ptr noundef nonnull align 8 dereferenceable(8) %15, i32 noundef %17, i1 noundef zeroext %7)
          to label %19 unwind label %47

19:                                               ; preds = %8
  %20 = getelementptr inbounds nuw i8, ptr %14, i64 8
  %21 = load i32, ptr %20, align 8, !tbaa !59
  %22 = add nsw i32 %21, 1
  store i32 %22, ptr %20, align 8, !tbaa !59
  store ptr %14, ptr %12, align 8, !tbaa !80
  call void @llvm.lifetime.start.p0(i64 4, ptr nonnull %13) #23
  store i32 1, ptr %13, align 4, !tbaa !96
  %23 = load ptr, ptr %14, align 8, !tbaa !32
  %24 = getelementptr inbounds nuw i8, ptr %23, i64 80
  %25 = load ptr, ptr %24, align 8
  invoke void %25(ptr noundef nonnull align 8 dereferenceable(220) %14, ptr noundef nonnull align 4 dereferenceable(4) %13)
          to label %26 unwind label %51

26:                                               ; preds = %19
  call void @llvm.lifetime.end.p0(i64 4, ptr nonnull %13) #23
  %27 = load ptr, ptr %14, align 8, !tbaa !32
  %28 = getelementptr inbounds nuw i8, ptr %27, i64 240
  %29 = load ptr, ptr %28, align 8
  invoke void %29(ptr noundef nonnull align 8 dereferenceable(220) %14, ptr noundef nonnull align 4 dereferenceable(4) %11)
          to label %30 unwind label %49

30:                                               ; preds = %26
  %31 = load ptr, ptr %14, align 8, !tbaa !32
  %32 = getelementptr inbounds nuw i8, ptr %31, i64 152
  %33 = load ptr, ptr %32, align 8
  invoke void %33(ptr noundef nonnull align 8 dereferenceable(220) %14, ptr noundef nonnull align 4 dereferenceable(4) %9)
          to label %34 unwind label %49

34:                                               ; preds = %30
  %35 = load ptr, ptr %14, align 8, !tbaa !32
  %36 = getelementptr inbounds nuw i8, ptr %35, i64 200
  %37 = load ptr, ptr %36, align 8
  invoke void %37(ptr noundef nonnull align 8 dereferenceable(220) %14, ptr noundef nonnull align 4 dereferenceable(4) %10)
          to label %38 unwind label %49

38:                                               ; preds = %34
  invoke void @_ZN5Ipopt17RegisteredOptions9AddOptionERKNS_8SmartPtrINS_16RegisteredOptionEEE(ptr noundef nonnull align 8 dereferenceable(128) %0, ptr noundef nonnull align 8 dereferenceable(8) %12)
          to label %39 unwind label %49

39:                                               ; preds = %38
  %40 = load i32, ptr %20, align 8, !tbaa !59
  %41 = add nsw i32 %40, -1
  store i32 %41, ptr %20, align 8, !tbaa !59
  %42 = icmp eq i32 %41, 0
  br i1 %42, label %43, label %_ZN5Ipopt8SmartPtrINS_16RegisteredOptionEED2Ev.exit

43:                                               ; preds = %39
  %44 = load ptr, ptr %14, align 8, !tbaa !32
  %45 = getelementptr inbounds nuw i8, ptr %44, i64 8
  %46 = load ptr, ptr %45, align 8
  call void %46(ptr noundef nonnull align 8 dereferenceable(220) %14) #23
  br label %_ZN5Ipopt8SmartPtrINS_16RegisteredOptionEED2Ev.exit

_ZN5Ipopt8SmartPtrINS_16RegisteredOptionEED2Ev.exit: ; preds = %39, %43
  call void @llvm.lifetime.end.p0(i64 8, ptr nonnull %12) #23
  ret void

47:                                               ; preds = %8
  %48 = landingpad { ptr, i32 }
          cleanup
  tail call void @_ZdlPvm(ptr noundef nonnull %14, i64 noundef 224) #24
  br label %_ZN5Ipopt8SmartPtrINS_16RegisteredOptionEED2Ev.exit11

49:                                               ; preds = %38, %34, %30, %26
  %50 = landingpad { ptr, i32 }
          cleanup
  br label %53

51:                                               ; preds = %19
  %52 = landingpad { ptr, i32 }
          cleanup
  call void @llvm.lifetime.end.p0(i64 4, ptr nonnull %13) #23
  br label %53

53:                                               ; preds = %49, %51
  %.pn = phi { ptr, i32 } [ %50, %49 ], [ %52, %51 ]
  %54 = load i32, ptr %20, align 8, !tbaa !59
  %55 = add nsw i32 %54, -1
  store i32 %55, ptr %20, align 8, !tbaa !59
  %56 = icmp eq i32 %55, 0
  br i1 %56, label %57, label %_ZN5Ipopt8SmartPtrINS_16RegisteredOptionEED2Ev.exit11

57:                                               ; preds = %53
  %58 = load ptr, ptr %14, align 8, !tbaa !32
  %59 = getelementptr inbounds nuw i8, ptr %58, i64 8
  %60 = load ptr, ptr %59, align 8
  call void %60(ptr noundef nonnull align 8 dereferenceable(220) %14) #23
  br label %_ZN5Ipopt8SmartPtrINS_16RegisteredOptionEED2Ev.exit11

_ZN5Ipopt8SmartPtrINS_16RegisteredOptionEED2Ev.exit11: ; preds = %57, %53, %47
  %.pn.pn = phi { ptr, i32 } [ %48, %47 ], [ %.pn, %53 ], [ %.pn, %57 ]
  call void @llvm.lifetime.end.p0(i64 8, ptr nonnull %12) #23
  resume { ptr, i32 } %.pn.pn
}